target datalayout = "e-m:e-p270:32:32-p271:32:32-p272:64:64-i64:64-i128:128-f80:128-n8:16:32:64-S128"
target triple = "x86_64-pc-linux-gnu"

%"class.cv::Mat" = type { i32, i32, i32, i32, ptr, ptr, ptr, ptr, ptr, ptr, %"struct.cv::MatSize", %"struct.cv::MatStep" }
%"struct.cv::MatSize" = type { ptr }
%"struct.cv::MatStep" = type { ptr, [2 x i64] }
%"class.cv::Vec.23" = type { %"class.cv::Matx.24" }
%"class.cv::Matx.24" = type { [3 x double] }

; Function Attrs: mustprogress nounwind uwtable
define linkonce_odr hidden void @_ZN2cv4MatxIdLi3ELi1EEC2Eddd(ptr noundef nonnull align 8 dereferenceable(24) %0, double noundef %1, double noundef %2, double noundef %3) unnamed_addr #2 comdat align 2 {
  %5 = alloca ptr, align 8
  %6 = alloca double, align 8
  %7 = alloca double, align 8
  %8 = alloca double, align 8
  %9 = alloca i32, align 4
  store ptr %0, ptr %5, align 8
  store double %1, ptr %6, align 8
  store double %2, ptr %7, align 8
  store double %3, ptr %8, align 8
  %10 = load ptr, ptr %5, align 8
  %11 = load double, ptr %6, align 8
  %12 = getelementptr inbounds %"class.cv::Matx.24", ptr %10, i32 0, i32 0
  %13 = getelementptr inbounds [3 x double], ptr %12, i64 0, i64 0
  store double %11, ptr %13, align 8
  %14 = load double, ptr %7, align 8
  %15 = getelementptr inbounds %"class.cv::Matx.24", ptr %10, i32 0, i32 0
  %16 = getelementptr inbounds [3 x double], ptr %15, i64 0, i64 1
  store double %14, ptr %16, align 8
  %17 = load double, ptr %8, align 8
  %18 = getelementptr inbounds %"class.cv::Matx.24", ptr %10, i32 0, i32 0
  %19 = getelementptr inbounds [3 x double], ptr %18, i64 0, i64 2
  store double %17, ptr %19, align 8
  store i32 3, ptr %9, align 4
  br label %20

20:                                               ; preds = %28, %4
  %21 = load i32, ptr %9, align 4
  %22 = icmp slt i32 %21, 3
  br i1 %22, label %23, label %31

23:                                               ; preds = %20
  %24 = getelementptr inbounds %"class.cv::Matx.24", ptr %10, i32 0, i32 0
  %25 = load i32, ptr %9, align 4
  %26 = sext i32 %25 to i64
  %27 = getelementptr inbounds [3 x double], ptr %24, i64 0, i64 %26
  store double 0.000000e+00, ptr %27, align 8
  br label %28

28:                                               ; preds = %23
  %29 = load i32, ptr %9, align 4
  %30 = add nsw i32 %29, 1
  store i32 %30, ptr %9, align 4
  br label %20, !llvm.loop !13

31:                                               ; preds = %20
  ret void
}

; Function Attrs: mustprogress nounwind uwtable
define linkonce_odr hidden noundef nonnull align 8 dereferenceable(24) ptr @_ZN2cv3Mat2atINS_3VecIdLi3EEEEERT_ii(ptr noundef nonnull align 8 dereferenceable(96) %0, i32 noundef %1, i32 noundef %2) #2 comdat align 2 {
  %4 = alloca ptr, align 8
  %5 = alloca i32, align 4
  %6 = alloca i32, align 4
  store ptr %0, ptr %4, align 8
  store i32 %1, ptr %5, align 4
  store i32 %2, ptr %6, align 4
  %7 = load ptr, ptr %4, align 8
  %8 = getelementptr inbounds %"class.cv::Mat", ptr %7, i32 0, i32 4
  %9 = load ptr, ptr %8, align 8
  %10 = getelementptr inbounds %"class.cv::Mat", ptr %7, i32 0, i32 11
  %11 = getelementptr inbounds %"struct.cv::MatStep", ptr %10, i32 0, i32 0
  %12 = load ptr, ptr %11, align 8
  %13 = getelementptr inbounds i64, ptr %12, i64 0
  %14 = load i64, ptr %13, align 8
  %15 = load i32, ptr %5, align 4
  %16 = sext i32 %15 to i64
  %17 = mul i64 %14, %16
  %18 = getelementptr inbounds i8, ptr %9, i64 %17
  %19 = load i32, ptr %6, align 4
  %20 = sext i32 %19 to i64
  %21 = getelementptr inbounds %"class.cv::Vec.23", ptr %18, i64 %20
  ret ptr %21
}

; Function Attrs: mustprogress uwtable
define linkonce_odr hidden void @_ZN2cv3VecIdLi3EEC2Eddd(ptr noundef nonnull align 8 dereferenceable(24) %0, double noundef %1, double noundef %2, double noundef %3) unnamed_addr #0 comdat align 2 {
  %5 = alloca ptr, align 8
  %6 = alloca double, align 8
  %7 = alloca double, align 8
  %8 = alloca double, align 8
  store ptr %0, ptr %5, align 8
  store double %1, ptr %6, align 8
  store double %2, ptr %7, align 8
  store double %3, ptr %8, align 8
  %9 = load ptr, ptr %5, align 8
  %10 = load double, ptr %6, align 8
  %11 = load double, ptr %7, align 8
  %12 = load double, ptr %8, align 8
  call void @_ZN2cv4MatxIdLi3ELi1EEC2Eddd(ptr noundef nonnull align 8 dereferenceable(24) %9, double noundef %10, double noundef %11, double noundef %12)
  ret void
}

; Function Attrs: mustprogress uwtable
define hidden void @_ZN2cv3ccm8GetColor15getColorCheckerEPKdi(ptr dead_on_unwind noalias writable sret(%"class.cv::Mat") align 8 %0, ptr noundef %1, i32 noundef %2) #0 align 2 personality ptr @__gxx_personality_v0 {
  %4 = alloca ptr, align 8
  %5 = alloca ptr, align 8
  %6 = alloca i32, align 4
  %7 = alloca i1, align 1
  %8 = alloca i32, align 4
  %9 = alloca %"class.cv::Vec.23", align 8
  %10 = alloca ptr, align 8
  %11 = alloca i32, align 4
  store ptr %0, ptr %4, align 8
  store ptr %1, ptr %5, align 8
  store i32 %2, ptr %6, align 4
  store i1 false, ptr %7, align 1
  %12 = load i32, ptr %6, align 4
  call void @_ZN2cv3MatC1Eiii(ptr noundef nonnull align 8 dereferenceable(96) %0, i32 noundef %12, i32 noundef 1, i32 noundef 22)
  store i32 0, ptr %8, align 4
  br label %13

13:                                               ; preds = %42, %3
  %14 = load i32, ptr %8, align 4
  %15 = load i32, ptr %6, align 4
  %16 = icmp slt i32 %14, %15
  br i1 %16, label %17, label %49

17:                                               ; preds = %13
  %18 = load ptr, ptr %5, align 8
  %19 = load i32, ptr %8, align 4
  %20 = mul nsw i32 3, %19
  %21 = sext i32 %20 to i64
  %22 = getelementptr inbounds double, ptr %18, i64 %21
  %23 = load double, ptr %22, align 8
  %24 = load ptr, ptr %5, align 8
  %25 = load i32, ptr %8, align 4
  %26 = mul nsw i32 3, %25
  %27 = add nsw i32 %26, 1
  %28 = sext i32 %27 to i64
  %29 = getelementptr inbounds double, ptr %24, i64 %28
  %30 = load double, ptr %29, align 8
  %31 = load ptr, ptr %5, align 8
  %32 = load i32, ptr %8, align 4
  %33 = mul nsw i32 3, %32
  %34 = add nsw i32 %33, 2
  %35 = sext i32 %34 to i64
  %36 = getelementptr inbounds double, ptr %31, i64 %35
  %37 = load double, ptr %36, align 8
  invoke void @_ZN2cv3VecIdLi3EEC2Eddd(ptr noundef nonnull align 8 dereferenceable(24) %9, double noundef %23, double noundef %30, double noundef %37)
          to label %38 unwind label %45

38:                                               ; preds = %17
  %39 = load i32, ptr %8, align 4
  %40 = invoke noundef nonnull align 8 dereferenceable(24) ptr @_ZN2cv3Mat2atINS_3VecIdLi3EEEEERT_ii(ptr noundef nonnull align 8 dereferenceable(96) %0, i32 noundef %39, i32 noundef 0)
          to label %41 unwind label %45

41:                                               ; preds = %38
  call void @llvm.memcpy.p0.p0.i64(ptr align 8 %40, ptr align 8 %9, i64 24, i1 false)
  br label %42

42:                                               ; preds = %41
  %43 = load i32, ptr %8, align 4
  %44 = add nsw i32 %43, 1
  store i32 %44, ptr %8, align 4
  br label %13, !llvm.loop !4

45:                                               ; preds = %38, %17
  %46 = landingpad { ptr, i32 }
          cleanup
  %47 = extractvalue { ptr, i32 } %46, 0
  store ptr %47, ptr %10, align 8
  %48 = extractvalue { ptr, i32 } %46, 1
  store i32 %48, ptr %11, align 4
  call void @_ZN2cv3MatD1Ev(ptr noundef nonnull align 8 dereferenceable(96) %0) #12
  br label %53

49:                                               ; preds = %13
  store i1 true, ptr %7, align 1
  %50 = load i1, ptr %7, align 1
  br i1 %50, label %52, label %51

51:                                               ; preds = %49
  call void @_ZN2cv3MatD1Ev(ptr noundef nonnull align 8 dereferenceable(96) %0) #12
  br label %52

52:                                               ; preds = %51, %49
  ret void

53:                                               ; preds = %45
  %54 = load ptr, ptr %10, align 8
  %55 = load i32, ptr %11, align 4
  %56 = insertvalue { ptr, i32 } poison, ptr %54, 0
  %57 = insertvalue { ptr, i32 } %56, i32 %55, 1
  resume { ptr, i32 } %57
}